target datalayout = "e-m:e-p270:32:32-p271:32:32-p272:64:64-i64:64-i128:128-f80:128-n8:16:32:64-S128"
target triple = "x86_64-pc-linux-gnu"

%class.RarTime = type { i64 }

@.str.3 = private unnamed_addr constant [8 x i32] [i32 37, i32 117, i32 46, i32 37, i32 48, i32 51, i32 117, i32 0], align 4

; Function Attrs: mustprogress nounwind uwtable
define linkonce_odr void @_ZN7RarTime5ResetEv(ptr noundef nonnull align 8 dereferenceable(8) %0) #4 comdat align 2 {
  %2 = alloca ptr, align 8
  store ptr %0, ptr %2, align 8
  %3 = load ptr, ptr %2, align 8
  %4 = getelementptr inbounds %class.RarTime, ptr %3, i32 0, i32 0
  store i64 0, ptr %4, align 8
  ret void
}

; Function Attrs: mustprogress uwtable
define noundef zeroext i1 @_Z9FileExistPKw(ptr noundef %0) #0 {
  %2 = alloca ptr, align 8
  %3 = alloca [2048 x i8], align 16
  store ptr %0, ptr %2, align 8
  %4 = load ptr, ptr %2, align 8
  %5 = getelementptr inbounds [2048 x i8], ptr %3, i64 0, i64 0
  %6 = call noundef zeroext i1 @_Z10WideToCharPKwPcm(ptr noundef %4, ptr noundef %5, i64 noundef 2048)
  %7 = getelementptr inbounds [2048 x i8], ptr %3, i64 0, i64 0
  %8 = call i32 @access(ptr noundef %7, i32 noundef 0) #9
  %9 = icmp eq i32 %8, 0
  ret i1 %9
}

; Function Attrs: mustprogress uwtable
define linkonce_odr void @_ZN7RarTimeC2Ev(ptr noundef nonnull align 8 dereferenceable(8) %0) unnamed_addr #0 comdat align 2 {
  %2 = alloca ptr, align 8
  store ptr %0, ptr %2, align 8
  %3 = load ptr, ptr %2, align 8
  call void @_ZN7RarTime5ResetEv(ptr noundef nonnull align 8 dereferenceable(8) %3)
  ret void
}

; Function Attrs: mustprogress uwtable
define noundef ptr @_Z6MkTempPwm(ptr noundef %0, i64 noundef %1) #0 {
  %3 = alloca ptr, align 8
  %4 = alloca ptr, align 8
  %5 = alloca i64, align 8
  %6 = alloca i64, align 8
  %7 = alloca %class.RarTime, align 8
  %8 = alloca i32, align 4
  %9 = alloca i32, align 4
  %10 = alloca i32, align 4
  %11 = alloca i32, align 4
  %12 = alloca [50 x i32], align 16
  store ptr %0, ptr %4, align 8
  store i64 %1, ptr %5, align 8
  %13 = load ptr, ptr %4, align 8
  %14 = call i64 @wcslen(ptr noundef %13) #11
  store i64 %14, ptr %6, align 8
  call void @_ZN7RarTimeC2Ev(ptr noundef nonnull align 8 dereferenceable(8) %7)
  call void @_ZN7RarTime14SetCurrentTimeEv(ptr noundef nonnull align 8 dereferenceable(8) %7)
  %15 = call noundef i64 @_ZN7RarTime6GetWinEv(ptr noundef nonnull align 8 dereferenceable(8) %7)
  %16 = udiv i64 %15, 100000
  %17 = trunc i64 %16 to i32
  store i32 %17, ptr %8, align 4
  store i32 0, ptr %9, align 4
  %18 = call i32 @getpid() #9
  store i32 %18, ptr %9, align 4
  store i32 0, ptr %10, align 4
  br label %19

19:                                               ; preds = %50, %2
  %20 = load i32, ptr %8, align 4
  %21 = urem i32 %20, 50000
  %22 = load i32, ptr %10, align 4
  %23 = add i32 %21, %22
  store i32 %23, ptr %11, align 4
  %24 = getelementptr inbounds [50 x i32], ptr %12, i64 0, i64 0
  %25 = load i32, ptr %9, align 4
  %26 = load i32, ptr %11, align 4
  %27 = call i32 (ptr, i64, ptr, ...) @swprintf(ptr noundef %24, i64 noundef 50, ptr noundef @.str.3, i32 noundef %25, i32 noundef %26) #9
  %28 = load i64, ptr %6, align 8
  %29 = getelementptr inbounds [50 x i32], ptr %12, i64 0, i64 0
  %30 = call i64 @wcslen(ptr noundef %29) #11
  %31 = add i64 %28, %30
  %32 = load i64, ptr %5, align 8
  %33 = icmp uge i64 %31, %32
  br i1 %33, label %37, label %34

34:                                               ; preds = %19
  %35 = load i32, ptr %10, align 4
  %36 = icmp eq i32 %35, 1000
  br i1 %36, label %37, label %38

37:                                               ; preds = %34, %19
  store ptr null, ptr %3, align 8
  br label %55

38:                                               ; preds = %34
  %39 = load ptr, ptr %4, align 8
  %40 = load i64, ptr %6, align 8
  %41 = getelementptr inbounds i32, ptr %39, i64 %40
  %42 = getelementptr inbounds [50 x i32], ptr %12, i64 0, i64 0
  %43 = load i64, ptr %5, align 8
  %44 = load i64, ptr %6, align 8
  %45 = sub i64 %43, %44
  call void @_Z8wcsncpyzPwPKwm(ptr noundef %41, ptr noundef %42, i64 noundef %45)
  %46 = load ptr, ptr %4, align 8
  %47 = call noundef zeroext i1 @_Z9FileExistPKw(ptr noundef %46)
  br i1 %47, label %49, label %48

48:                                               ; preds = %38
  br label %53

49:                                               ; preds = %38
  br label %50

50:                                               ; preds = %49
  %51 = load i32, ptr %10, align 4
  %52 = add i32 %51, 1
  store i32 %52, ptr %10, align 4
  br label %19, !llvm.loop !6

53:                                               ; preds = %48
  %54 = load ptr, ptr %4, align 8
  store ptr %54, ptr %3, align 8
  br label %55

55:                                               ; preds = %53, %37
  %56 = load ptr, ptr %3, align 8
  ret ptr %56
}