; Function Attrs: mustprogress uwtable
define noundef ptr @_Z6MkTempPwm(ptr noundef %0, i64 noundef %1) local_unnamed_addr #0 {
  %3 = alloca [2048 x i8], align 16
  %4 = alloca %class.RarTime, align 8
  %5 = alloca [50 x i32], align 16
  %6 = tail call i64 @wcslen(ptr noundef %0) #16
  store i64 0, ptr %4, align 8
  call void @_ZN7RarTime14SetCurrentTimeEv(ptr noundef nonnull align 8 dereferenceable(8) %4)
  %7 = call noundef i64 @_ZN7RarTime6GetWinEv(ptr noundef nonnull align 8 dereferenceable(8) %4)
  %8 = udiv i64 %7, 100000
  %9 = trunc i64 %8 to i32
  %10 = call i32 @getpid() #14
  %11 = getelementptr inbounds i32, ptr %0, i64 %6
  %12 = sub i64 %1, %6
  %13 = urem i32 %9, 50000
  %14 = call i32 (ptr, i64, ptr, ...) @swprintf(ptr noundef nonnull %5, i64 noundef 50, ptr noundef nonnull @.str.3, i32 noundef %10, i32 noundef %13) #14
  %15 = call i64 @wcslen(ptr noundef nonnull %5) #16
  %16 = add i64 %15, %6
  %.not = icmp ult i64 %16, %1
  br i1 %.not, label %.lr.ph, label %._crit_edge

17:                                               ; preds = %.lr.ph
  %18 = add nuw nsw i32 %.01618, 1
  %19 = add nuw i32 %18, %13
  %20 = call i32 (ptr, i64, ptr, ...) @swprintf(ptr noundef nonnull %5, i64 noundef 50, ptr noundef nonnull @.str.3, i32 noundef %10, i32 noundef %19) #14
  %21 = call i64 @wcslen(ptr noundef nonnull %5) #16
  %22 = add i64 %21, %6
  %23 = icmp uge i64 %22, %1
  %24 = icmp eq i32 %18, 1000
  %or.cond = or i1 %24, %23
  br i1 %or.cond, label %._crit_edge, label %.lr.ph, !llvm.loop !6

.lr.ph:                                           ; preds = %2, %17
  %.01618 = phi i32 [ %18, %17 ], [ 0, %2 ]
  call void @_Z8wcsncpyzPwPKwm(ptr noundef %11, ptr noundef nonnull %5, i64 noundef %12)
  call void @llvm.lifetime.start.p0(i64 2048, ptr nonnull %3)
  %25 = call noundef zeroext i1 @_Z10WideToCharPKwPcm(ptr noundef %0, ptr noundef nonnull %3, i64 noundef 2048)
  %26 = call i32 @access(ptr noundef nonnull %3, i32 noundef 0) #14
  %27 = icmp eq i32 %26, 0
  call void @llvm.lifetime.end.p0(i64 2048, ptr nonnull %3)
  br i1 %27, label %17, label %._crit_edge

._crit_edge:                                      ; preds = %17, %.lr.ph, %2
  %.0 = phi ptr [ null, %2 ], [ %0, %.lr.ph ], [ null, %17 ]
  ret ptr %.0
}